; Function Attrs: nounwind uwtable
define void @Abc_VecObjPushUniqueOrderByLevel(ptr noundef captures(none) %0, ptr noundef %1) local_unnamed_addr #0 {
  %3 = getelementptr inbounds nuw i8, ptr %0, i64 4
  %4 = load i32, ptr %3, align 4
  %5 = icmp sgt i32 %4, 0
  br i1 %5, label %.lr.ph.i, label %._crit_edge.i

.lr.ph.i:                                         ; preds = %2
  %6 = getelementptr inbounds nuw i8, ptr %0, i64 8
  %7 = load ptr, ptr %6, align 8
  %wide.trip.count.i = zext nneg i32 %4 to i64
  br label %9

8:                                                ; preds = %9
  %indvars.iv.next.i = add nuw nsw i64 %indvars.iv.i, 1
  %exitcond.not.i = icmp eq i64 %indvars.iv.next.i, %wide.trip.count.i
  br i1 %exitcond.not.i, label %._crit_edge.i, label %9, !llvm.loop !67

9:                                                ; preds = %8, %.lr.ph.i
  %indvars.iv.i = phi i64 [ 0, %.lr.ph.i ], [ %indvars.iv.next.i, %8 ]
  %10 = getelementptr inbounds nuw ptr, ptr %7, i64 %indvars.iv.i
  %11 = load ptr, ptr %10, align 8
  %12 = icmp eq ptr %11, %1
  br i1 %12, label %Vec_PtrPushUnique.exit, label %8

._crit_edge.i:                                    ; preds = %8, %2
  %13 = load i32, ptr %0, align 8
  %14 = icmp eq i32 %4, %13
  br i1 %14, label %15, label %.Vec_PtrGrow.exit11_crit_edge.i.i

.Vec_PtrGrow.exit11_crit_edge.i.i:                ; preds = %._crit_edge.i
  %.phi.trans.insert.i.i = getelementptr inbounds nuw i8, ptr %0, i64 8
  %.pre.i.i = load ptr, ptr %.phi.trans.insert.i.i, align 8
  br label %37

15:                                               ; preds = %._crit_edge.i
  %16 = icmp slt i32 %4, 16
  br i1 %16, label %17, label %25

17:                                               ; preds = %15
  %18 = getelementptr inbounds nuw i8, ptr %0, i64 8
  %19 = load ptr, ptr %18, align 8
  %.not9.i.i.i = icmp eq ptr %19, null
  br i1 %.not9.i.i.i, label %22, label %20

20:                                               ; preds = %17
  %21 = tail call dereferenceable_or_null(128) ptr @realloc(ptr noundef nonnull %19, i64 noundef 128) #29
  br label %Vec_PtrGrow.exit.i.i

22:                                               ; preds = %17
  %23 = tail call noalias dereferenceable_or_null(128) ptr @malloc(i64 noundef 128) #30
  br label %Vec_PtrGrow.exit.i.i

Vec_PtrGrow.exit.i.i:                             ; preds = %22, %20
  %24 = phi ptr [ %21, %20 ], [ %23, %22 ]
  store ptr %24, ptr %18, align 8
  store i32 16, ptr %0, align 8
  br label %37

25:                                               ; preds = %15
  %26 = shl nuw nsw i32 %4, 1
  %27 = getelementptr inbounds nuw i8, ptr %0, i64 8
  %28 = load ptr, ptr %27, align 8
  %.not9.i10.i.i = icmp eq ptr %28, null
  %29 = zext nneg i32 %26 to i64
  %30 = shl nuw nsw i64 %29, 3
  br i1 %.not9.i10.i.i, label %33, label %31

31:                                               ; preds = %25
  %32 = tail call ptr @realloc(ptr noundef nonnull %28, i64 noundef %30) #29
  br label %35

33:                                               ; preds = %25
  %34 = tail call noalias ptr @malloc(i64 noundef %30) #30
  br label %35

35:                                               ; preds = %33, %31
  %36 = phi ptr [ %32, %31 ], [ %34, %33 ]
  store ptr %36, ptr %27, align 8
  store i32 %26, ptr %0, align 8
  br label %37

37:                                               ; preds = %.Vec_PtrGrow.exit11_crit_edge.i.i, %Vec_PtrGrow.exit.i.i, %35
  %38 = phi ptr [ %.pre.i.i, %.Vec_PtrGrow.exit11_crit_edge.i.i ], [ %36, %35 ], [ %24, %Vec_PtrGrow.exit.i.i ]
  %39 = load i32, ptr %3, align 4
  %40 = add nsw i32 %39, 1
  store i32 %40, ptr %3, align 4
  %41 = sext i32 %39 to i64
  %42 = getelementptr inbounds ptr, ptr %38, i64 %41
  store ptr %1, ptr %42, align 8
  %43 = load i32, ptr %3, align 4
  %44 = getelementptr inbounds nuw i8, ptr %0, i64 8
  %45 = icmp sgt i32 %43, 1
  br i1 %45, label %.lr.ph.preheader, label %Vec_PtrPushUnique.exit

.lr.ph.preheader:                                 ; preds = %37
  %46 = zext nneg i32 %43 to i64
  br label %.lr.ph

.lr.ph:                                           ; preds = %.lr.ph.preheader, %65
  %indvars.iv = phi i64 [ %46, %.lr.ph.preheader ], [ %indvars.iv.next, %65 ]
  %indvars.iv.next = add nsw i64 %indvars.iv, -1
  %47 = load ptr, ptr %44, align 8
  %48 = getelementptr inbounds nuw ptr, ptr %47, i64 %indvars.iv.next
  %49 = load ptr, ptr %48, align 8
  %50 = add nsw i64 %indvars.iv, -2
  %51 = getelementptr inbounds nuw ptr, ptr %47, i64 %50
  %52 = load ptr, ptr %51, align 8
  %53 = ptrtoint ptr %49 to i64
  %54 = and i64 %53, -2
  %55 = inttoptr i64 %54 to ptr
  %56 = getelementptr inbounds nuw i8, ptr %55, i64 20
  %57 = load i32, ptr %56, align 4
  %58 = lshr i32 %57, 12
  %59 = ptrtoint ptr %52 to i64
  %60 = and i64 %59, -2
  %61 = inttoptr i64 %60 to ptr
  %62 = getelementptr inbounds nuw i8, ptr %61, i64 20
  %63 = load i32, ptr %62, align 4
  %64 = lshr i32 %63, 12
  %.not16 = icmp samesign ugt i32 %58, %64
  br i1 %.not16, label %65, label %Vec_PtrPushUnique.exit

65:                                               ; preds = %.lr.ph
  store ptr %52, ptr %48, align 8
  %66 = load ptr, ptr %44, align 8
  %67 = getelementptr inbounds nuw ptr, ptr %66, i64 %50
  store ptr %49, ptr %67, align 8
  %68 = icmp samesign ugt i64 %indvars.iv, 2
  br i1 %68, label %.lr.ph, label %Vec_PtrPushUnique.exit, !llvm.loop !68

Vec_PtrPushUnique.exit:                           ; preds = %9, %65, %.lr.ph, %37
  ret void
}